target datalayout = "e-m:e-p270:32:32-p271:32:32-p272:64:64-i64:64-i128:128-f80:128-n8:16:32:64-S128"
target triple = "x86_64-pc-linux-gnu"

%struct.vars = type { ptr, ptr, ptr, i32, i32, i32, i32, i32, i32, i32, ptr, i64, [10 x ptr], ptr, ptr, i16, ptr, ptr, ptr, ptr, i32, ptr, ptr, ptr, i32, i64 }

; Function Attrs: nounwind uwtable
define internal i32 @lexdigits(ptr noundef %0, i32 noundef %1, i32 noundef %2, i32 noundef %3) #0 {
  %5 = alloca ptr, align 8
  %6 = alloca i32, align 4
  %7 = alloca i32, align 4
  %8 = alloca i32, align 4
  %9 = alloca i32, align 4
  %10 = alloca i32, align 4
  %11 = alloca i32, align 4
  %12 = alloca i32, align 4
  %13 = alloca i32, align 4
  store ptr %0, ptr %5, align 8
  store i32 %1, ptr %6, align 4
  store i32 %2, ptr %7, align 4
  store i32 %3, ptr %8, align 4
  call void @llvm.lifetime.start.p0(i64 4, ptr %9) #12
  call void @llvm.lifetime.start.p0(i64 4, ptr %10) #12
  call void @llvm.lifetime.start.p0(i64 4, ptr %11) #12
  call void @llvm.lifetime.start.p0(i64 4, ptr %12) #12
  call void @llvm.lifetime.start.p0(i64 4, ptr %13) #12
  %14 = load i32, ptr %6, align 4
  store i32 %14, ptr %13, align 4
  store i32 0, ptr %9, align 4
  store i32 0, ptr %10, align 4
  br label %15

15:                                               ; preds = %70, %4
  %16 = load i32, ptr %10, align 4
  %17 = load i32, ptr %8, align 4
  %18 = icmp slt i32 %16, %17
  br i1 %18, label %19, label %28

19:                                               ; preds = %15
  %20 = load ptr, ptr %5, align 8
  %21 = getelementptr inbounds nuw %struct.vars, ptr %20, i32 0, i32 1
  %22 = load ptr, ptr %21, align 8
  %23 = load ptr, ptr %5, align 8
  %24 = getelementptr inbounds nuw %struct.vars, ptr %23, i32 0, i32 2
  %25 = load ptr, ptr %24, align 8
  %26 = icmp uge ptr %22, %25
  %27 = xor i1 %26, true
  br label %28

28:                                               ; preds = %19, %15
  %29 = phi i1 [ false, %15 ], [ %27, %19 ]
  br i1 %29, label %30, label %73

30:                                               ; preds = %28
  %31 = load ptr, ptr %5, align 8
  %32 = getelementptr inbounds nuw %struct.vars, ptr %31, i32 0, i32 1
  %33 = load ptr, ptr %32, align 8
  %34 = getelementptr inbounds nuw i32, ptr %33, i32 1
  store ptr %34, ptr %32, align 8
  %35 = load i32, ptr %33, align 4
  store i32 %35, ptr %11, align 4
  %36 = load i32, ptr %11, align 4
  switch i32 %36, label %46 [
    i32 48, label %37
    i32 49, label %37
    i32 50, label %37
    i32 51, label %37
    i32 52, label %37
    i32 53, label %37
    i32 54, label %37
    i32 55, label %37
    i32 56, label %37
    i32 57, label %37
    i32 97, label %40
    i32 65, label %40
    i32 98, label %41
    i32 66, label %41
    i32 99, label %42
    i32 67, label %42
    i32 100, label %43
    i32 68, label %43
    i32 101, label %44
    i32 69, label %44
    i32 102, label %45
    i32 70, label %45
  ]

37:                                               ; preds = %30, %30, %30, %30, %30, %30, %30, %30, %30, %30
  %38 = load i32, ptr %11, align 4
  %39 = sub i32 %38, 48
  store i32 %39, ptr %12, align 4
  br label %51

40:                                               ; preds = %30, %30
  store i32 10, ptr %12, align 4
  br label %51

41:                                               ; preds = %30, %30
  store i32 11, ptr %12, align 4
  br label %51

42:                                               ; preds = %30, %30
  store i32 12, ptr %12, align 4
  br label %51

43:                                               ; preds = %30, %30
  store i32 13, ptr %12, align 4
  br label %51

44:                                               ; preds = %30, %30
  store i32 14, ptr %12, align 4
  br label %51

45:                                               ; preds = %30, %30
  store i32 15, ptr %12, align 4
  br label %51

46:                                               ; preds = %30
  %47 = load ptr, ptr %5, align 8
  %48 = getelementptr inbounds nuw %struct.vars, ptr %47, i32 0, i32 1
  %49 = load ptr, ptr %48, align 8
  %50 = getelementptr inbounds i32, ptr %49, i32 -1
  store ptr %50, ptr %48, align 8
  store i32 -1, ptr %12, align 4
  br label %51

51:                                               ; preds = %46, %45, %44, %43, %42, %41, %40, %37
  %52 = load i32, ptr %12, align 4
  %53 = load i32, ptr %6, align 4
  %54 = icmp sge i32 %52, %53
  br i1 %54, label %55, label %60

55:                                               ; preds = %51
  %56 = load ptr, ptr %5, align 8
  %57 = getelementptr inbounds nuw %struct.vars, ptr %56, i32 0, i32 1
  %58 = load ptr, ptr %57, align 8
  %59 = getelementptr inbounds i32, ptr %58, i32 -1
  store ptr %59, ptr %57, align 8
  store i32 -1, ptr %12, align 4
  br label %60

60:                                               ; preds = %55, %51
  %61 = load i32, ptr %12, align 4
  %62 = icmp slt i32 %61, 0
  br i1 %62, label %63, label %64

63:                                               ; preds = %60
  br label %73

64:                                               ; preds = %60
  %65 = load i32, ptr %9, align 4
  %66 = load i32, ptr %13, align 4
  %67 = mul i32 %65, %66
  %68 = load i32, ptr %12, align 4
  %69 = add i32 %67, %68
  store i32 %69, ptr %9, align 4
  br label %70

70:                                               ; preds = %64
  %71 = load i32, ptr %10, align 4
  %72 = add i32 %71, 1
  store i32 %72, ptr %10, align 4
  br label %15, !llvm.loop !91

73:                                               ; preds = %63, %28
  %74 = load i32, ptr %10, align 4
  %75 = load i32, ptr %7, align 4
  %76 = icmp slt i32 %74, %75
  br i1 %76, label %77, label %93

77:                                               ; preds = %73
  %78 = load ptr, ptr %5, align 8
  %79 = getelementptr inbounds nuw %struct.vars, ptr %78, i32 0, i32 6
  store i32 101, ptr %79, align 4
  %80 = load ptr, ptr %5, align 8
  %81 = getelementptr inbounds nuw %struct.vars, ptr %80, i32 0, i32 3
  %82 = load i32, ptr %81, align 8
  %83 = icmp ne i32 %82, 0
  br i1 %83, label %84, label %88

84:                                               ; preds = %77
  %85 = load ptr, ptr %5, align 8
  %86 = getelementptr inbounds nuw %struct.vars, ptr %85, i32 0, i32 3
  %87 = load i32, ptr %86, align 8
  br label %89

88:                                               ; preds = %77
  br label %89

89:                                               ; preds = %88, %84
  %90 = phi i32 [ %87, %84 ], [ 5, %88 ]
  %91 = load ptr, ptr %5, align 8
  %92 = getelementptr inbounds nuw %struct.vars, ptr %91, i32 0, i32 3
  store i32 %90, ptr %92, align 8
  br label %93

93:                                               ; preds = %89, %73
  %94 = load i32, ptr %9, align 4
  call void @llvm.lifetime.end.p0(i64 4, ptr %13) #12
  call void @llvm.lifetime.end.p0(i64 4, ptr %12) #12
  call void @llvm.lifetime.end.p0(i64 4, ptr %11) #12
  call void @llvm.lifetime.end.p0(i64 4, ptr %10) #12
  call void @llvm.lifetime.end.p0(i64 4, ptr %9) #12
  ret i32 %94
}