; Function Attrs: nofree norecurse nosync nounwind memory(read, argmem: readwrite, inaccessiblemem: none) uwtable
define internal fastcc i32 @lexdigits(ptr noundef nonnull captures(none) %0, i32 noundef range(i32 8, 17) %1, i32 noundef range(i32 1, 9) %2, i32 noundef range(i32 3, 256) %3) unnamed_addr #16 {
  %5 = getelementptr inbounds nuw i8, ptr %0, i64 8
  %6 = getelementptr inbounds nuw i8, ptr %0, i64 16
  %7 = load ptr, ptr %6, align 8
  %.promoted = load ptr, ptr %5, align 8
  br label %8

8:                                                ; preds = %4, %15
  %9 = phi ptr [ %.promoted, %4 ], [ %11, %15 ]
  %.042 = phi i32 [ 0, %4 ], [ %17, %15 ]
  %.02441 = phi i32 [ 0, %4 ], [ %18, %15 ]
  %.not = icmp ult ptr %9, %7
  br i1 %.not, label %10, label %.critedge

10:                                               ; preds = %8
  %11 = getelementptr inbounds nuw i8, ptr %9, i64 4
  store ptr %11, ptr %5, align 8
  %12 = load i32, ptr %9, align 4
  %switch.tableidx = add i32 %12, -48
  %13 = icmp ult i32 %switch.tableidx, 55
  br i1 %13, label %switch.hole_check, label %.critedge.sink.split

switch.hole_check:                                ; preds = %10
  %switch.maskindex = zext nneg i32 %switch.tableidx to i64
  %switch.shifted = lshr i64 35465847073801215, %switch.maskindex
  %switch.lobit = trunc i64 %switch.shifted to i1
  br i1 %switch.lobit, label %switch.lookup, label %.critedge.sink.split

switch.lookup:                                    ; preds = %switch.hole_check
  %14 = zext nneg i32 %switch.tableidx to i64
  %switch.gep = getelementptr inbounds nuw [55 x i32], ptr @switch.table.lexdigits, i64 0, i64 %14
  %switch.load = load i32, ptr %switch.gep, align 4
  %.not26 = icmp samesign ult i32 %switch.load, %1
  br i1 %.not26, label %15, label %.critedge.sink.split

15:                                               ; preds = %switch.lookup
  %16 = mul i32 %.042, %1
  %17 = add i32 %switch.load, %16
  %18 = add nuw nsw i32 %.02441, 1
  %exitcond.not = icmp eq i32 %18, %3
  br i1 %exitcond.not, label %.critedge, label %8, !llvm.loop !144

.critedge.sink.split:                             ; preds = %switch.hole_check, %10, %switch.lookup
  store ptr %9, ptr %5, align 8
  br label %.critedge

.critedge:                                        ; preds = %15, %8, %.critedge.sink.split
  %.02437 = phi i32 [ %.02441, %.critedge.sink.split ], [ %.02441, %8 ], [ %3, %15 ]
  %.034 = phi i32 [ %.042, %.critedge.sink.split ], [ %.042, %8 ], [ %17, %15 ]
  %19 = icmp samesign ult i32 %.02437, %2
  br i1 %19, label %20, label %24

20:                                               ; preds = %.critedge
  %21 = getelementptr inbounds nuw i8, ptr %0, i64 36
  store i32 101, ptr %21, align 4
  %22 = getelementptr inbounds nuw i8, ptr %0, i64 24
  %23 = load i32, ptr %22, align 8
  %.not27 = icmp eq i32 %23, 0
  %spec.select = select i1 %.not27, i32 5, i32 %23
  store i32 %spec.select, ptr %22, align 8
  br label %24

24:                                               ; preds = %20, %.critedge
  ret i32 %.034
}